target datalayout = "e-m:e-p270:32:32-p271:32:32-p272:64:64-i64:64-i128:128-f80:128-n8:16:32:64-S128"
target triple = "x86_64-unknown-linux-gnu"

%struct.MemoryRegionOps = type { ptr, ptr, ptr, ptr, i32, %struct.anon, %struct.anon.2 }
%struct.anon = type { i32, i32, i8, ptr }
%struct.anon.2 = type { i32, i32, i8 }
%struct.QTailQLink = type { ptr, ptr }
%struct.AHCIState = type { ptr, ptr, %struct.AHCIControlRegs, %struct.MemoryRegion, %struct.MemoryRegion, i32, i32, i32, ptr, ptr }
%struct.AHCIControlRegs = type { i32, i32, i32, i32, i32 }
%struct.MemoryRegion = type { %struct.Object, i8, i8, i8, i8, i8, i8, i8, i8, i8, i8, ptr, ptr, ptr, ptr, ptr, ptr, i32, i128, i64, ptr, i64, i8, i8, i8, i8, i8, ptr, i64, i32, %union.anon, %union.anon.0, %union.anon.1, ptr, i32, ptr, ptr, i8 }
%struct.Object = type { ptr, ptr, ptr, i32, ptr }
%union.anon = type { %struct.QTailQLink }
%union.anon.0 = type { %struct.QTailQLink }
%union.anon.1 = type { %struct.QTailQLink }

@ahci_mem_ops = internal constant %struct.MemoryRegionOps { ptr @ahci_mem_read, ptr @ahci_mem_write, ptr null, ptr null, i32 2, %struct.anon zeroinitializer, %struct.anon.2 zeroinitializer }, align 8
@.str = private unnamed_addr constant [5 x i8] c"ahci\00", align 1
@ahci_idp_ops = internal constant %struct.MemoryRegionOps { ptr @ahci_idp_read, ptr @ahci_idp_write, ptr null, ptr null, i32 2, %struct.anon zeroinitializer, %struct.anon.2 zeroinitializer }, align 8
@.str.1 = private unnamed_addr constant [9 x i8] c"ahci-idp\00", align 1

; Function Attrs: nounwind sspstrong uwtable
define dso_local void @ahci_init(ptr noundef %s, ptr noundef %qdev) #0 {
entry:
  %s.addr = alloca ptr, align 8
  %qdev.addr = alloca ptr, align 8
  store ptr %s, ptr %s.addr, align 8
  store ptr %qdev, ptr %qdev.addr, align 8
  %0 = load ptr, ptr %qdev.addr, align 8
  %1 = load ptr, ptr %s.addr, align 8
  %container = getelementptr inbounds %struct.AHCIState, ptr %1, i32 0, i32 0
  store ptr %0, ptr %container, align 16
  %2 = load ptr, ptr %s.addr, align 8
  %mem = getelementptr inbounds %struct.AHCIState, ptr %2, i32 0, i32 3
  %3 = load ptr, ptr %qdev.addr, align 8
  %4 = load ptr, ptr %s.addr, align 8
  call void @memory_region_init_io(ptr noundef %mem, ptr noundef %3, ptr noundef @ahci_mem_ops, ptr noundef %4, ptr noundef @.str, i64 noundef 4096)
  %5 = load ptr, ptr %s.addr, align 8
  %idp = getelementptr inbounds %struct.AHCIState, ptr %5, i32 0, i32 4
  %6 = load ptr, ptr %qdev.addr, align 8
  %7 = load ptr, ptr %s.addr, align 8
  call void @memory_region_init_io(ptr noundef %idp, ptr noundef %6, ptr noundef @ahci_idp_ops, ptr noundef %7, ptr noundef @.str.1, i64 noundef 32)
  ret void
}