; Function Attrs: nounwind sspstrong uwtable
define dso_local void @ahci_init(ptr noundef initializes((0, 8)) %s, ptr noundef %qdev) local_unnamed_addr #0 {
entry:
  store ptr %qdev, ptr %s, align 16
  %mem = getelementptr inbounds nuw i8, ptr %s, i64 48
  tail call void @memory_region_init_io(ptr noundef nonnull %mem, ptr noundef %qdev, ptr noundef nonnull @ahci_mem_ops, ptr noundef nonnull %s, ptr noundef nonnull @.str, i64 noundef 4096) #12
  %idp = getelementptr inbounds nuw i8, ptr %s, i64 320
  tail call void @memory_region_init_io(ptr noundef nonnull %idp, ptr noundef %qdev, ptr noundef nonnull @ahci_idp_ops, ptr noundef nonnull %s, ptr noundef nonnull @.str.1, i64 noundef 32) #12
  ret void
}